target datalayout = "e-m:e-p270:32:32-p271:32:32-p272:64:64-i64:64-i128:128-f80:128-n8:16:32:64-S128"
target triple = "x86_64-pc-linux-gnu"

%union.anon = type { ptr }
%struct.AVCodecContext = type { ptr, i32, i32, ptr, i32, i32, ptr, ptr, ptr, i64, i32, i32, ptr, i32, %struct.AVRational, %struct.AVRational, %struct.AVRational, i32, i32, i32, i32, i32, %struct.AVRational, i32, i32, i32, i32, i32, i32, i32, i32, i32, i32, i32, ptr, ptr, i32, float, float, float, float, float, float, float, float, float, i32, i32, i32, i32, i32, i32, i32, i32, i32, i32, i32, i32, ptr, ptr, ptr, i32, i32, i32, i32, i32, i32, i32, i32, i32, i32, %struct.AVChannelLayout, i32, i32, i32, i32, i32, i32, i32, i32, ptr, i32, i32, i32, float, float, i32, i32, i32, i32, i32, ptr, i64, i64, float, float, i32, i32, ptr, ptr, i32, i32, i32, i32, i32, ptr, ptr, ptr, ptr, i32, i32, [8 x i64], i32, i32, i32, i32, i32, i32, i32, ptr, ptr, i32, i32, i32, i32, i32, i32, i32, i32, i32, i32, ptr, ptr, i32, i32, ptr, ptr, ptr, ptr, i32, i32, i64, i32, i32, i64, ptr, i64, ptr, i32, ptr, i32 }
%struct.AVRational = type { i32, i32 }
%struct.AVChannelLayout = type { i32, i32, %union.anon.0, ptr }
%union.anon.0 = type { i64 }
%struct.AVPacket = type { ptr, i64, i64, ptr, i32, i32, i32, ptr, i32, i64, i64, ptr, ptr, %struct.AVRational }
%struct.AVSubtitle = type { i16, i32, i32, i32, ptr, i64 }
%struct.AVSubtitleRect = type { i32, i32, i32, i32, i32, [4 x ptr], [4 x i32], i32, i32, ptr, ptr }

@.str = private unnamed_addr constant [4 x i8] c"ssa\00", align 1
@.str.1 = private unnamed_addr constant [41 x i8] c"ASS (Advanced SubStation Alpha) subtitle\00", align 1
@ff_ssa_decoder = constant { { ptr, ptr, i32, i32, i32, i8, [3 x i8], ptr, ptr, ptr, ptr, ptr, ptr, ptr, ptr }, i8, i8, i8, i8, i32, ptr, ptr, ptr, ptr, %union.anon, ptr, ptr, ptr, ptr, ptr, ptr } { { ptr, ptr, i32, i32, i32, i8, [3 x i8], ptr, ptr, ptr, ptr, ptr, ptr, ptr, ptr } { ptr @.str, ptr @.str.1, i32 3, i32 94230, i32 0, i8 0, [3 x i8] zeroinitializer, ptr null, ptr null, ptr null, ptr null, ptr null, ptr null, ptr null, ptr null }, i8 0, i8 0, i8 0, i8 36, i32 0, ptr null, ptr null, ptr null, ptr @ass_decode_init, %union.anon { ptr @ass_decode_frame }, ptr null, ptr null, ptr null, ptr null, ptr null, ptr null }, align 8
@.str.2 = private unnamed_addr constant [4 x i8] c"ass\00", align 1
@ff_ass_decoder = constant { { ptr, ptr, i32, i32, i32, i8, [3 x i8], ptr, ptr, ptr, ptr, ptr, ptr, ptr, ptr }, i8, i8, i8, i8, i32, ptr, ptr, ptr, ptr, %union.anon, ptr, ptr, ptr, ptr, ptr, ptr } { { ptr, ptr, i32, i32, i32, i8, [3 x i8], ptr, ptr, ptr, ptr, ptr, ptr, ptr, ptr } { ptr @.str.2, ptr @.str.1, i32 3, i32 94230, i32 0, i8 0, [3 x i8] zeroinitializer, ptr null, ptr null, ptr null, ptr null, ptr null, ptr null, ptr null, ptr null }, i8 0, i8 0, i8 0, i8 36, i32 0, ptr null, ptr null, ptr null, ptr @ass_decode_init, %union.anon { ptr @ass_decode_frame }, ptr null, ptr null, ptr null, ptr null, ptr null, ptr null }, align 8

; Function Attrs: cold nounwind optsize uwtable
define internal i32 @ass_decode_init(ptr noundef %0) #0 {
  %2 = alloca i32, align 4
  %3 = alloca ptr, align 8
  store ptr %0, ptr %3, align 8, !tbaa !4
  %4 = load ptr, ptr %3, align 8, !tbaa !4
  %5 = getelementptr inbounds nuw %struct.AVCodecContext, ptr %4, i32 0, i32 13
  %6 = load i32, ptr %5, align 8, !tbaa !9
  %7 = add nsw i32 %6, 1
  %8 = sext i32 %7 to i64
  %9 = call noalias ptr @av_malloc(i64 noundef %8)
  %10 = load ptr, ptr %3, align 8, !tbaa !4
  %11 = getelementptr inbounds nuw %struct.AVCodecContext, ptr %10, i32 0, i32 135
  store ptr %9, ptr %11, align 8, !tbaa !29
  %12 = load ptr, ptr %3, align 8, !tbaa !4
  %13 = getelementptr inbounds nuw %struct.AVCodecContext, ptr %12, i32 0, i32 135
  %14 = load ptr, ptr %13, align 8, !tbaa !29
  %15 = icmp ne ptr %14, null
  br i1 %15, label %17, label %16

16:                                               ; preds = %1
  store i32 -12, ptr %2, align 4
  br label %47

17:                                               ; preds = %1
  %18 = load ptr, ptr %3, align 8, !tbaa !4
  %19 = getelementptr inbounds nuw %struct.AVCodecContext, ptr %18, i32 0, i32 13
  %20 = load i32, ptr %19, align 8, !tbaa !9
  %21 = icmp ne i32 %20, 0
  br i1 %21, label %22, label %33

22:                                               ; preds = %17
  %23 = load ptr, ptr %3, align 8, !tbaa !4
  %24 = getelementptr inbounds nuw %struct.AVCodecContext, ptr %23, i32 0, i32 135
  %25 = load ptr, ptr %24, align 8, !tbaa !29
  %26 = load ptr, ptr %3, align 8, !tbaa !4
  %27 = getelementptr inbounds nuw %struct.AVCodecContext, ptr %26, i32 0, i32 12
  %28 = load ptr, ptr %27, align 8, !tbaa !30
  %29 = load ptr, ptr %3, align 8, !tbaa !4
  %30 = getelementptr inbounds nuw %struct.AVCodecContext, ptr %29, i32 0, i32 13
  %31 = load i32, ptr %30, align 8, !tbaa !9
  %32 = sext i32 %31 to i64
  call void @llvm.memcpy.p0.p0.i64(ptr align 1 %25, ptr align 1 %28, i64 %32, i1 false)
  br label %33

33:                                               ; preds = %22, %17
  %34 = load ptr, ptr %3, align 8, !tbaa !4
  %35 = getelementptr inbounds nuw %struct.AVCodecContext, ptr %34, i32 0, i32 135
  %36 = load ptr, ptr %35, align 8, !tbaa !29
  %37 = load ptr, ptr %3, align 8, !tbaa !4
  %38 = getelementptr inbounds nuw %struct.AVCodecContext, ptr %37, i32 0, i32 13
  %39 = load i32, ptr %38, align 8, !tbaa !9
  %40 = sext i32 %39 to i64
  %41 = getelementptr inbounds i8, ptr %36, i64 %40
  store i8 0, ptr %41, align 1, !tbaa !31
  %42 = load ptr, ptr %3, align 8, !tbaa !4
  %43 = getelementptr inbounds nuw %struct.AVCodecContext, ptr %42, i32 0, i32 13
  %44 = load i32, ptr %43, align 8, !tbaa !9
  %45 = load ptr, ptr %3, align 8, !tbaa !4
  %46 = getelementptr inbounds nuw %struct.AVCodecContext, ptr %45, i32 0, i32 134
  store i32 %44, ptr %46, align 4, !tbaa !32
  store i32 0, ptr %2, align 4
  br label %47

47:                                               ; preds = %33, %16
  %48 = load i32, ptr %2, align 4
  ret i32 %48
}

; Function Attrs: nounwind uwtable
define internal i32 @ass_decode_frame(ptr noundef %0, ptr noundef %1, ptr noundef %2, ptr noundef %3) #1 {
  %5 = alloca i32, align 4
  %6 = alloca ptr, align 8
  %7 = alloca ptr, align 8
  %8 = alloca ptr, align 8
  %9 = alloca ptr, align 8
  store ptr %0, ptr %6, align 8, !tbaa !4
  store ptr %1, ptr %7, align 8, !tbaa !33
  store ptr %2, ptr %8, align 8, !tbaa !35
  store ptr %3, ptr %9, align 8, !tbaa !36
  %10 = load ptr, ptr %9, align 8, !tbaa !36
  %11 = getelementptr inbounds nuw %struct.AVPacket, ptr %10, i32 0, i32 4
  %12 = load i32, ptr %11, align 8, !tbaa !38
  %13 = icmp sle i32 %12, 0
  br i1 %13, label %14, label %18

14:                                               ; preds = %4
  %15 = load ptr, ptr %9, align 8, !tbaa !36
  %16 = getelementptr inbounds nuw %struct.AVPacket, ptr %15, i32 0, i32 4
  %17 = load i32, ptr %16, align 8, !tbaa !38
  store i32 %17, ptr %5, align 4
  br label %73

18:                                               ; preds = %4
  %19 = call noalias ptr @av_malloc(i64 noundef 8)
  %20 = load ptr, ptr %7, align 8, !tbaa !33
  %21 = getelementptr inbounds nuw %struct.AVSubtitle, ptr %20, i32 0, i32 4
  store ptr %19, ptr %21, align 8, !tbaa !40
  %22 = load ptr, ptr %7, align 8, !tbaa !33
  %23 = getelementptr inbounds nuw %struct.AVSubtitle, ptr %22, i32 0, i32 4
  %24 = load ptr, ptr %23, align 8, !tbaa !40
  %25 = icmp ne ptr %24, null
  br i1 %25, label %27, label %26

26:                                               ; preds = %18
  store i32 -12, ptr %5, align 4
  br label %73

27:                                               ; preds = %18
  %28 = call noalias ptr @av_mallocz(i64 noundef 96)
  %29 = load ptr, ptr %7, align 8, !tbaa !33
  %30 = getelementptr inbounds nuw %struct.AVSubtitle, ptr %29, i32 0, i32 4
  %31 = load ptr, ptr %30, align 8, !tbaa !40
  %32 = getelementptr inbounds ptr, ptr %31, i64 0
  store ptr %28, ptr %32, align 8, !tbaa !44
  %33 = load ptr, ptr %7, align 8, !tbaa !33
  %34 = getelementptr inbounds nuw %struct.AVSubtitle, ptr %33, i32 0, i32 4
  %35 = load ptr, ptr %34, align 8, !tbaa !40
  %36 = getelementptr inbounds ptr, ptr %35, i64 0
  %37 = load ptr, ptr %36, align 8, !tbaa !44
  %38 = icmp ne ptr %37, null
  br i1 %38, label %40, label %39

39:                                               ; preds = %27
  store i32 -12, ptr %5, align 4
  br label %73

40:                                               ; preds = %27
  %41 = load ptr, ptr %7, align 8, !tbaa !33
  %42 = getelementptr inbounds nuw %struct.AVSubtitle, ptr %41, i32 0, i32 3
  store i32 1, ptr %42, align 4, !tbaa !46
  %43 = load ptr, ptr %7, align 8, !tbaa !33
  %44 = getelementptr inbounds nuw %struct.AVSubtitle, ptr %43, i32 0, i32 4
  %45 = load ptr, ptr %44, align 8, !tbaa !40
  %46 = getelementptr inbounds ptr, ptr %45, i64 0
  %47 = load ptr, ptr %46, align 8, !tbaa !44
  %48 = getelementptr inbounds nuw %struct.AVSubtitleRect, ptr %47, i32 0, i32 8
  store i32 3, ptr %48, align 4, !tbaa !47
  %49 = load ptr, ptr %9, align 8, !tbaa !36
  %50 = getelementptr inbounds nuw %struct.AVPacket, ptr %49, i32 0, i32 3
  %51 = load ptr, ptr %50, align 8, !tbaa !49
  %52 = call noalias ptr @av_strdup(ptr noundef %51)
  %53 = load ptr, ptr %7, align 8, !tbaa !33
  %54 = getelementptr inbounds nuw %struct.AVSubtitle, ptr %53, i32 0, i32 4
  %55 = load ptr, ptr %54, align 8, !tbaa !40
  %56 = getelementptr inbounds ptr, ptr %55, i64 0
  %57 = load ptr, ptr %56, align 8, !tbaa !44
  %58 = getelementptr inbounds nuw %struct.AVSubtitleRect, ptr %57, i32 0, i32 10
  store ptr %52, ptr %58, align 8, !tbaa !50
  %59 = load ptr, ptr %7, align 8, !tbaa !33
  %60 = getelementptr inbounds nuw %struct.AVSubtitle, ptr %59, i32 0, i32 4
  %61 = load ptr, ptr %60, align 8, !tbaa !40
  %62 = getelementptr inbounds ptr, ptr %61, i64 0
  %63 = load ptr, ptr %62, align 8, !tbaa !44
  %64 = getelementptr inbounds nuw %struct.AVSubtitleRect, ptr %63, i32 0, i32 10
  %65 = load ptr, ptr %64, align 8, !tbaa !50
  %66 = icmp ne ptr %65, null
  br i1 %66, label %68, label %67

67:                                               ; preds = %40
  store i32 -12, ptr %5, align 4
  br label %73

68:                                               ; preds = %40
  %69 = load ptr, ptr %8, align 8, !tbaa !35
  store i32 1, ptr %69, align 4, !tbaa !51
  %70 = load ptr, ptr %9, align 8, !tbaa !36
  %71 = getelementptr inbounds nuw %struct.AVPacket, ptr %70, i32 0, i32 4
  %72 = load i32, ptr %71, align 8, !tbaa !38
  store i32 %72, ptr %5, align 4
  br label %73

73:                                               ; preds = %68, %67, %39, %26, %14
  %74 = load i32, ptr %5, align 4
  ret i32 %74
}

declare noalias ptr @av_malloc(i64 noundef) #2

; Function Attrs: nocallback nofree nounwind willreturn memory(argmem: readwrite)
declare void @llvm.memcpy.p0.p0.i64(ptr noalias writeonly captures(none), ptr noalias readonly captures(none), i64, i1 immarg) #3

declare noalias ptr @av_mallocz(i64 noundef) #2

declare noalias ptr @av_strdup(ptr noundef) #2


!llvm.module.flags = !{!0, !1, !2, !3}

!0 = !{i32 1, !"wchar_size", i32 4}
!1 = !{i32 8, !"PIC Level", i32 2}
!2 = !{i32 7, !"uwtable", i32 2}
!3 = !{i32 1, !"override-stack-alignment", i32 16}
!4 = !{!5, !5, i64 0}
!5 = !{!"p1 _ZTS14AVCodecContext", !6, i64 0}
!6 = !{!"any pointer", !7, i64 0}
!7 = !{!"omnipotent char", !8, i64 0}
!8 = !{!"Simple C/C++ TBAA"}
!9 = !{!10, !12, i64 80}
!10 = !{!"AVCodecContext", !11, i64 0, !12, i64 8, !12, i64 12, !13, i64 16, !12, i64 24, !12, i64 28, !6, i64 32, !14, i64 40, !6, i64 48, !15, i64 56, !12, i64 64, !12, i64 68, !16, i64 72, !12, i64 80, !17, i64 84, !17, i64 92, !17, i64 100, !12, i64 108, !12, i64 112, !12, i64 116, !12, i64 120, !12, i64 124, !17, i64 128, !12, i64 136, !12, i64 140, !12, i64 144, !12, i64 148, !12, i64 152, !12, i64 156, !12, i64 160, !12, i64 164, !12, i64 168, !12, i64 172, !12, i64 176, !6, i64 184, !6, i64 192, !12, i64 200, !18, i64 204, !18, i64 208, !18, i64 212, !18, i64 216, !18, i64 220, !18, i64 224, !18, i64 228, !18, i64 232, !18, i64 236, !12, i64 240, !12, i64 244, !12, i64 248, !12, i64 252, !12, i64 256, !12, i64 260, !12, i64 264, !12, i64 268, !12, i64 272, !12, i64 276, !12, i64 280, !12, i64 284, !19, i64 288, !19, i64 296, !19, i64 304, !12, i64 312, !12, i64 316, !12, i64 320, !12, i64 324, !12, i64 328, !12, i64 332, !12, i64 336, !12, i64 340, !12, i64 344, !12, i64 348, !20, i64 352, !12, i64 376, !12, i64 380, !12, i64 384, !12, i64 388, !12, i64 392, !12, i64 396, !12, i64 400, !12, i64 404, !6, i64 408, !12, i64 416, !12, i64 420, !12, i64 424, !18, i64 428, !18, i64 432, !12, i64 436, !12, i64 440, !12, i64 444, !12, i64 448, !12, i64 452, !21, i64 456, !15, i64 464, !15, i64 472, !18, i64 480, !18, i64 484, !12, i64 488, !12, i64 492, !16, i64 496, !16, i64 504, !12, i64 512, !12, i64 516, !12, i64 520, !12, i64 524, !12, i64 528, !22, i64 536, !6, i64 544, !23, i64 552, !23, i64 560, !12, i64 568, !12, i64 572, !7, i64 576, !12, i64 640, !12, i64 644, !12, i64 648, !12, i64 652, !12, i64 656, !12, i64 660, !12, i64 664, !6, i64 672, !6, i64 680, !12, i64 688, !12, i64 692, !12, i64 696, !12, i64 700, !12, i64 704, !12, i64 708, !12, i64 712, !12, i64 716, !12, i64 720, !12, i64 724, !24, i64 728, !16, i64 736, !12, i64 744, !12, i64 748, !16, i64 752, !16, i64 760, !16, i64 768, !25, i64 776, !12, i64 784, !12, i64 788, !15, i64 792, !12, i64 800, !12, i64 804, !15, i64 808, !6, i64 816, !15, i64 824, !26, i64 832, !12, i64 840, !27, i64 848, !12, i64 856}
!11 = !{!"p1 _ZTS7AVClass", !6, i64 0}
!12 = !{!"int", !7, i64 0}
!13 = !{!"p1 _ZTS7AVCodec", !6, i64 0}
!14 = !{!"p1 _ZTS15AVCodecInternal", !6, i64 0}
!15 = !{!"long", !7, i64 0}
!16 = !{!"p1 omnipotent char", !6, i64 0}
!17 = !{!"AVRational", !12, i64 0, !12, i64 4}
!18 = !{!"float", !7, i64 0}
!19 = !{!"p1 short", !6, i64 0}
!20 = !{!"AVChannelLayout", !12, i64 0, !12, i64 4, !7, i64 8, !6, i64 16}
!21 = !{!"p1 _ZTS10RcOverride", !6, i64 0}
!22 = !{!"p1 _ZTS9AVHWAccel", !6, i64 0}
!23 = !{!"p1 _ZTS11AVBufferRef", !6, i64 0}
!24 = !{!"p1 _ZTS17AVCodecDescriptor", !6, i64 0}
!25 = !{!"p1 _ZTS16AVPacketSideData", !6, i64 0}
!26 = !{!"p1 int", !6, i64 0}
!27 = !{!"p2 _ZTS15AVFrameSideData", !28, i64 0}
!28 = !{!"any p2 pointer", !6, i64 0}
!29 = !{!10, !16, i64 752}
!30 = !{!10, !16, i64 72}
!31 = !{!7, !7, i64 0}
!32 = !{!10, !12, i64 748}
!33 = !{!34, !34, i64 0}
!34 = !{!"p1 _ZTS10AVSubtitle", !6, i64 0}
!35 = !{!26, !26, i64 0}
!36 = !{!37, !37, i64 0}
!37 = !{!"p1 _ZTS8AVPacket", !6, i64 0}
!38 = !{!39, !12, i64 32}
!39 = !{!"AVPacket", !23, i64 0, !15, i64 8, !15, i64 16, !16, i64 24, !12, i64 32, !12, i64 36, !12, i64 40, !25, i64 48, !12, i64 56, !15, i64 64, !15, i64 72, !6, i64 80, !23, i64 88, !17, i64 96}
!40 = !{!41, !43, i64 16}
!41 = !{!"AVSubtitle", !42, i64 0, !12, i64 4, !12, i64 8, !12, i64 12, !43, i64 16, !15, i64 24}
!42 = !{!"short", !7, i64 0}
!43 = !{!"p2 _ZTS14AVSubtitleRect", !28, i64 0}
!44 = !{!45, !45, i64 0}
!45 = !{!"p1 _ZTS14AVSubtitleRect", !6, i64 0}
!46 = !{!41, !12, i64 12}
!47 = !{!48, !12, i64 76}
!48 = !{!"AVSubtitleRect", !12, i64 0, !12, i64 4, !12, i64 8, !12, i64 12, !12, i64 16, !7, i64 24, !7, i64 56, !12, i64 72, !12, i64 76, !16, i64 80, !16, i64 88}
!49 = !{!39, !16, i64 24}
!50 = !{!48, !16, i64 88}
!51 = !{!12, !12, i64 0}
